; Function Attrs: mustprogress nofree norecurse nosync nounwind willreturn memory(read, argmem: readwrite, inaccessiblemem: none) uwtable
define dso_local void @_ZN14StringResource13handleWrite16EP7SRBRoot(ptr noundef nonnull align 8 captures(none) dereferenceable(141) %0, ptr readnone captures(none) %1) unnamed_addr #20 align 2 {
  %3 = getelementptr inbounds nuw i8, ptr %0, i64 120
  %4 = load ptr, ptr %3, align 8, !tbaa !63
  %.not = icmp eq ptr %4, null
  br i1 %.not, label %12, label %5

5:                                                ; preds = %2
  %6 = getelementptr inbounds nuw i8, ptr %4, i64 12
  %7 = load i32, ptr %6, align 4, !tbaa !20
  %8 = getelementptr inbounds nuw i8, ptr %0, i64 12
  store i32 %7, ptr %8, align 4, !tbaa !20
  %9 = getelementptr inbounds nuw i8, ptr %4, i64 9
  %10 = load i8, ptr %9, align 1, !tbaa !17
  %11 = getelementptr inbounds nuw i8, ptr %0, i64 9
  store i8 %10, ptr %11, align 1, !tbaa !17
  br label %12

12:                                               ; preds = %5, %2
  ret void
}